(dp1
S'failed'
p2
(lp3
sS'source_names'
p4
(lp5
S'tests/jobs'
p6
asS'ids'
p7
(dp8
I1
(S'/home/gmoe/Projects/plenario/plenario/tests/jobs/job_tests.py'
S'tests.jobs.job_tests'
p9
S'TestJobs.test_bad_job_retrieval'
tp10
sI2
(S'/home/gmoe/Projects/plenario/plenario/tests/jobs/job_tests.py'
g9
S'TestJobs.test_datadump_csv_job'
tp11
sI3
(S'/home/gmoe/Projects/plenario/plenario/tests/jobs/job_tests.py'
g9
S'TestJobs.test_datadump_json_job'
tp12
ss.